; Function Attrs: mustprogress nounwind uwtable
define dso_local noundef nonnull align 8 dereferenceable(96) ptr @_ZN3net14QuicHeaderListaSEOS0_(ptr noundef nonnull returned align 8 dereferenceable(96) %this, ptr noundef nonnull align 8 dereferenceable(96) %other) local_unnamed_addr #1 align 2 {
entry:
  %header_list_ = getelementptr inbounds i8, ptr %this, i64 8
  %header_list_2 = getelementptr inbounds i8, ptr %other, i64 8
  tail call void @_ZNSt5dequeISt4pairINSt7__cxx1112basic_stringIcSt11char_traitsIcESaIcEEES6_ESaIS7_EE15_M_move_assign1EOS9_St17integral_constantIbLb1EE(ptr noundef nonnull align 8 dereferenceable(80) %header_list_, ptr noundef nonnull align 8 dereferenceable(80) %header_list_2) #14
  %uncompressed_header_bytes_ = getelementptr inbounds i8, ptr %other, i64 88
  %0 = load i64, ptr %uncompressed_header_bytes_, align 8
  %uncompressed_header_bytes_4 = getelementptr inbounds i8, ptr %this, i64 88
  store i64 %0, ptr %uncompressed_header_bytes_4, align 8
  ret ptr %this
}